; Function Attrs: mustprogress nounwind uwtable
define dso_local void @_ZN5clang10AtomicExprC2ENS_14SourceLocationEN4llvm8ArrayRefIPNS_4ExprEEENS_8QualTypeENS0_8AtomicOpES1_(ptr noundef nonnull align 8 dereferenceable(88) %0, i32 %1, ptr nocapture readonly %2, i64 %3, i64 %4, i32 noundef %5, i32 %6) unnamed_addr #1 align 2 {
  store i8 120, ptr %0, align 8
  %8 = load i8, ptr @_ZN5clang4Stmt17StatisticsEnabledE, align 1
  %9 = trunc i8 %8 to i1
  br i1 %9, label %10, label %_ZN5clang4ExprC2ENS_4Stmt9StmtClassENS_8QualTypeENS_13ExprValueKindENS_14ExprObjectKindE.exit

10:                                               ; preds = %7
  tail call void @_ZN5clang4Stmt12addStmtClassENS0_9StmtClassE(i32 noundef 120) #28
  br label %_ZN5clang4ExprC2ENS_4Stmt9StmtClassENS_8QualTypeENS_13ExprValueKindENS_14ExprObjectKindE.exit

_ZN5clang4ExprC2ENS_4Stmt9StmtClassENS_8QualTypeENS_13ExprValueKindENS_14ExprObjectKindE.exit: ; preds = %7, %10
  %11 = getelementptr inbounds nuw i8, ptr %0, i64 8
  %12 = getelementptr inbounds nuw i8, ptr %0, i64 1
  %13 = load i16, ptr %12, align 1
  %14 = and i16 %13, -1024
  store i16 %14, ptr %12, align 1
  store i64 %4, ptr %11, align 8
  %15 = getelementptr inbounds nuw i8, ptr %0, i64 72
  %16 = trunc i64 %3 to i32
  store i32 %16, ptr %15, align 8
  %17 = getelementptr inbounds nuw i8, ptr %0, i64 76
  store i32 %1, ptr %17, align 4
  %18 = getelementptr inbounds nuw i8, ptr %0, i64 80
  store i32 %6, ptr %18, align 8
  %19 = getelementptr inbounds nuw i8, ptr %0, i64 84
  store i32 %5, ptr %19, align 4
  %.not10 = icmp eq i64 %3, 0
  br i1 %.not10, label %._crit_edge, label %.lr.ph

.lr.ph:                                           ; preds = %_ZN5clang4ExprC2ENS_4Stmt9StmtClassENS_8QualTypeENS_13ExprValueKindENS_14ExprObjectKindE.exit
  %20 = getelementptr inbounds nuw i8, ptr %0, i64 16
  br label %21

21:                                               ; preds = %.lr.ph, %21
  %22 = phi i64 [ 0, %.lr.ph ], [ %27, %21 ]
  %.011 = phi i32 [ 0, %.lr.ph ], [ %26, %21 ]
  %23 = getelementptr inbounds ptr, ptr %2, i64 %22
  %24 = load ptr, ptr %23, align 8
  %25 = getelementptr inbounds [7 x ptr], ptr %20, i64 0, i64 %22
  store ptr %24, ptr %25, align 8
  %26 = add i32 %.011, 1
  %27 = zext i32 %26 to i64
  %.not = icmp eq i64 %3, %27
  br i1 %.not, label %._crit_edge, label %21, !llvm.loop !225

._crit_edge:                                      ; preds = %21, %_ZN5clang4ExprC2ENS_4Stmt9StmtClassENS_8QualTypeENS_13ExprValueKindENS_14ExprObjectKindE.exit
  %28 = tail call noundef zeroext i8 @_ZN5clang17computeDependenceEPNS_10AtomicExprE(ptr noundef nonnull %0) #28
  %29 = load i16, ptr %12, align 1
  %30 = and i8 %28, 31
  %31 = zext nneg i8 %30 to i16
  %32 = shl nuw nsw i16 %31, 5
  %33 = and i16 %29, -993
  %34 = or disjoint i16 %32, %33
  store i16 %34, ptr %12, align 1
  ret void
}